target datalayout = "e-m:e-p270:32:32-p271:32:32-p272:64:64-i64:64-i128:128-f80:128-n8:16:32:64-S128"
target triple = "x86_64-unknown-linux-gnu"

%class.region = type { ptr, ptr, ptr, ptr, ptr }
%"struct.region::mark" = type { ptr, ptr, ptr }

; Function Attrs: mustprogress nounwind uwtable
define linkonce_odr hidden noundef ptr @_Z9prev_pagePc(ptr noundef %page) #5 comdat {
entry:
  %page.addr = alloca ptr, align 8
  %tagged_ptr = alloca i64, align 8
  store ptr %page, ptr %page.addr, align 8
  %0 = load ptr, ptr %page.addr, align 8
  %arrayidx = getelementptr inbounds i64, ptr %0, i64 -1
  %1 = load i64, ptr %arrayidx, align 8
  store i64 %1, ptr %tagged_ptr, align 8
  %2 = load i64, ptr %tagged_ptr, align 8
  %and = and i64 %2, -2
  %3 = inttoptr i64 %and to ptr
  ret ptr %3
}

; Function Attrs: mustprogress nounwind uwtable
define linkonce_odr hidden noundef ptr @_Z19end_of_default_pagePc(ptr noundef %p) #5 comdat {
entry:
  %p.addr = alloca ptr, align 8
  store ptr %p, ptr %p.addr, align 8
  %0 = load ptr, ptr %p.addr, align 8
  %add.ptr = getelementptr inbounds i8, ptr %0, i64 8184
  ret ptr %add.ptr
}

; Function Attrs: mustprogress uwtable
define linkonce_odr hidden void @_ZN6region17recycle_curr_pageEv(ptr noundef nonnull align 8 dereferenceable(40) %this) #4 comdat align 2 {
entry:
  %this.addr = alloca ptr, align 8
  %prev = alloca ptr, align 8
  store ptr %this, ptr %this.addr, align 8
  %this1 = load ptr, ptr %this.addr, align 8
  %m_curr_page = getelementptr inbounds %class.region, ptr %this1, i32 0, i32 0
  %0 = load ptr, ptr %m_curr_page, align 8
  %call = call noundef ptr @_Z9prev_pagePc(ptr noundef %0)
  store ptr %call, ptr %prev, align 8
  %m_curr_page2 = getelementptr inbounds %class.region, ptr %this1, i32 0, i32 0
  %1 = load ptr, ptr %m_curr_page2, align 8
  %m_free_pages = getelementptr inbounds %class.region, ptr %this1, i32 0, i32 3
  call void @_Z12recycle_pagePcRS_(ptr noundef %1, ptr noundef nonnull align 8 dereferenceable(8) %m_free_pages)
  %2 = load ptr, ptr %prev, align 8
  %m_curr_page3 = getelementptr inbounds %class.region, ptr %this1, i32 0, i32 0
  store ptr %2, ptr %m_curr_page3, align 8
  ret void
}

; Function Attrs: mustprogress uwtable
define hidden void @_ZN6region9pop_scopeEv(ptr noundef nonnull align 8 dereferenceable(40) %this) #4 align 2 {
entry:
  %this.addr = alloca ptr, align 8
  %old_curr_page = alloca ptr, align 8
  store ptr %this, ptr %this.addr, align 8
  %this1 = load ptr, ptr %this.addr, align 8
  %m_mark = getelementptr inbounds %class.region, ptr %this1, i32 0, i32 4
  %0 = load ptr, ptr %m_mark, align 8
  %m_curr_page = getelementptr inbounds %"struct.region::mark", ptr %0, i32 0, i32 0
  %1 = load ptr, ptr %m_curr_page, align 8
  store ptr %1, ptr %old_curr_page, align 8
  %m_mark2 = getelementptr inbounds %class.region, ptr %this1, i32 0, i32 4
  %2 = load ptr, ptr %m_mark2, align 8
  %m_curr_ptr = getelementptr inbounds %"struct.region::mark", ptr %2, i32 0, i32 1
  %3 = load ptr, ptr %m_curr_ptr, align 8
  %m_curr_ptr3 = getelementptr inbounds %class.region, ptr %this1, i32 0, i32 1
  store ptr %3, ptr %m_curr_ptr3, align 8
  %m_mark4 = getelementptr inbounds %class.region, ptr %this1, i32 0, i32 4
  %4 = load ptr, ptr %m_mark4, align 8
  %m_prev_mark = getelementptr inbounds %"struct.region::mark", ptr %4, i32 0, i32 2
  %5 = load ptr, ptr %m_prev_mark, align 8
  %m_mark5 = getelementptr inbounds %class.region, ptr %this1, i32 0, i32 4
  store ptr %5, ptr %m_mark5, align 8
  br label %while.cond

while.cond:                                       ; preds = %while.body, %entry
  %m_curr_page6 = getelementptr inbounds %class.region, ptr %this1, i32 0, i32 0
  %6 = load ptr, ptr %m_curr_page6, align 8
  %7 = load ptr, ptr %old_curr_page, align 8
  %cmp = icmp ne ptr %6, %7
  br i1 %cmp, label %while.body, label %while.end

while.body:                                       ; preds = %while.cond
  call void @_ZN6region17recycle_curr_pageEv(ptr noundef nonnull align 8 dereferenceable(40) %this1)
  br label %while.cond, !llvm.loop !6

while.end:                                        ; preds = %while.cond
  %m_curr_page7 = getelementptr inbounds %class.region, ptr %this1, i32 0, i32 0
  %8 = load ptr, ptr %m_curr_page7, align 8
  %call = call noundef ptr @_Z19end_of_default_pagePc(ptr noundef %8)
  %m_curr_end_ptr = getelementptr inbounds %class.region, ptr %this1, i32 0, i32 2
  store ptr %call, ptr %m_curr_end_ptr, align 8
  ret void
}