; Function Attrs: mustprogress uwtable
define hidden void @_ZN6region9pop_scopeEv(ptr noundef nonnull align 8 dereferenceable(40) initializes((8, 16)) %this) local_unnamed_addr #3 align 2 {
entry:
  %m_mark = getelementptr inbounds nuw i8, ptr %this, i64 32
  %0 = load ptr, ptr %m_mark, align 8
  %1 = load ptr, ptr %0, align 8
  %m_curr_ptr = getelementptr inbounds nuw i8, ptr %0, i64 8
  %2 = load ptr, ptr %m_curr_ptr, align 8
  %m_curr_ptr3 = getelementptr inbounds nuw i8, ptr %this, i64 8
  store ptr %2, ptr %m_curr_ptr3, align 8
  %m_prev_mark = getelementptr inbounds nuw i8, ptr %0, i64 16
  %3 = load ptr, ptr %m_prev_mark, align 8
  store ptr %3, ptr %m_mark, align 8
  %4 = load ptr, ptr %this, align 8
  %cmp.not1 = icmp eq ptr %4, %1
  br i1 %cmp.not1, label %while.end, label %while.body.lr.ph

while.body.lr.ph:                                 ; preds = %entry
  %m_free_pages.i = getelementptr inbounds nuw i8, ptr %this, i64 24
  br label %while.body

while.body:                                       ; preds = %while.body.lr.ph, %while.body
  %5 = phi ptr [ %4, %while.body.lr.ph ], [ %7, %while.body ]
  %arrayidx.i.i = getelementptr inbounds i8, ptr %5, i64 -8
  %6 = load i64, ptr %arrayidx.i.i, align 8
  %and.i.i = and i64 %6, -2
  %7 = inttoptr i64 %and.i.i to ptr
  tail call void @_Z12recycle_pagePcRS_(ptr noundef %5, ptr noundef nonnull align 8 dereferenceable(8) %m_free_pages.i)
  store ptr %7, ptr %this, align 8
  %cmp.not = icmp eq ptr %1, %7
  br i1 %cmp.not, label %while.end, label %while.body, !llvm.loop !6

while.end:                                        ; preds = %while.body, %entry
  %.lcssa = phi ptr [ %4, %entry ], [ %7, %while.body ]
  %add.ptr.i = getelementptr inbounds nuw i8, ptr %.lcssa, i64 8184
  %m_curr_end_ptr = getelementptr inbounds nuw i8, ptr %this, i64 16
  store ptr %add.ptr.i, ptr %m_curr_end_ptr, align 8
  ret void
}